; Function Attrs: inlinehint mustprogress nounwind uwtable
define internal fastcc void @_ZNSt4pairIPN12_GLOBAL__N_19FlowGraph4NodeEN5Yosys7hashlib4poolIPKNS4_5RTLIL4WireENS5_8hash_opsISA_EEEEED2Ev(ptr noundef nonnull readonly align 8 captures(none) dereferenceable(64) %0) unnamed_addr #4 align 2 personality ptr @__gxx_personality_v0 {
  %2 = getelementptr inbounds nuw i8, ptr %0, i64 8
  %3 = getelementptr inbounds nuw i8, ptr %0, i64 32
  %4 = load ptr, ptr %3, align 8, !tbaa !434
  %.not.i.i.i.i = icmp eq ptr %4, null
  br i1 %.not.i.i.i.i, label %_ZNSt6vectorIN5Yosys7hashlib4poolIPKNS0_5RTLIL4WireENS1_8hash_opsIS6_EEE7entry_tESaISA_EED2Ev.exit.i, label %5

5:                                                ; preds = %1
  %6 = getelementptr inbounds nuw i8, ptr %0, i64 48
  %7 = load ptr, ptr %6, align 8, !tbaa !435
  %8 = ptrtoint ptr %7 to i64
  %9 = ptrtoint ptr %4 to i64
  %10 = sub i64 %8, %9
  tail call void @_ZdlPvm(ptr noundef nonnull %4, i64 noundef %10) #35
  br label %_ZNSt6vectorIN5Yosys7hashlib4poolIPKNS0_5RTLIL4WireENS1_8hash_opsIS6_EEE7entry_tESaISA_EED2Ev.exit.i

_ZNSt6vectorIN5Yosys7hashlib4poolIPKNS0_5RTLIL4WireENS1_8hash_opsIS6_EEE7entry_tESaISA_EED2Ev.exit.i: ; preds = %5, %1
  %11 = load ptr, ptr %2, align 8, !tbaa !217
  %.not.i.i.i1.i = icmp eq ptr %11, null
  br i1 %.not.i.i.i1.i, label %_ZN5Yosys7hashlib4poolIPKNS_5RTLIL4WireENS0_8hash_opsIS5_EEED2Ev.exit, label %12

12:                                               ; preds = %_ZNSt6vectorIN5Yosys7hashlib4poolIPKNS0_5RTLIL4WireENS1_8hash_opsIS6_EEE7entry_tESaISA_EED2Ev.exit.i
  %13 = getelementptr inbounds nuw i8, ptr %0, i64 24
  %14 = load ptr, ptr %13, align 8, !tbaa !425
  %15 = ptrtoint ptr %14 to i64
  %16 = ptrtoint ptr %11 to i64
  %17 = sub i64 %15, %16
  tail call void @_ZdlPvm(ptr noundef nonnull %11, i64 noundef %17) #35
  br label %_ZN5Yosys7hashlib4poolIPKNS_5RTLIL4WireENS0_8hash_opsIS5_EEED2Ev.exit

_ZN5Yosys7hashlib4poolIPKNS_5RTLIL4WireENS0_8hash_opsIS5_EEED2Ev.exit: ; preds = %_ZNSt6vectorIN5Yosys7hashlib4poolIPKNS0_5RTLIL4WireENS1_8hash_opsIS6_EEE7entry_tESaISA_EED2Ev.exit.i, %12
  ret void
}